; Function Attrs: mustprogress uwtable
define noundef zeroext i1 @pkpy_push_voidp(ptr noundef %0, ptr noundef %1) local_unnamed_addr #4 {
  %3 = getelementptr inbounds nuw i8, ptr %0, i64 264488
  %4 = load ptr, ptr %3, align 8
  %.not = icmp eq ptr %4, null
  br i1 %.not, label %5, label %10

5:                                                ; preds = %2
  %6 = tail call noundef ptr @_ZN4pkpy11from_void_pEPNS_2VMEPv(ptr noundef nonnull %0, ptr noundef %1)
  %7 = getelementptr inbounds nuw i8, ptr %0, i64 264296
  %8 = load ptr, ptr %7, align 8
  %9 = getelementptr inbounds nuw i8, ptr %8, i64 8
  store ptr %9, ptr %7, align 8
  store ptr %6, ptr %8, align 8
  br label %10

10:                                               ; preds = %2, %5
  ret i1 %.not
}